; Function Attrs: nounwind uwtable
define internal void @evdns_ttl_expired(i32 %0, i16 signext %1, ptr noundef %2) #2 {
  %4 = getelementptr inbounds nuw i8, ptr %2, i64 152
  %5 = load ptr, ptr %4, align 8
  %6 = getelementptr inbounds nuw i8, ptr %2, i64 16
  %7 = load ptr, ptr %6, align 8
  tail call void (i32, ptr, ...) @evdns_log_(i32 noundef 0, ptr noundef nonnull @.str.119, ptr noundef %7)
  %8 = getelementptr inbounds nuw i8, ptr %5, i64 344
  %9 = load ptr, ptr %8, align 8
  %.not = icmp eq ptr %9, null
  br i1 %.not, label %13, label %10

10:                                               ; preds = %3
  %11 = load ptr, ptr getelementptr inbounds nuw (i8, ptr @evthread_lock_fns_, i64 24), align 8
  %12 = tail call i32 %11(i32 noundef 0, ptr noundef nonnull %9) #21
  br label %13

13:                                               ; preds = %10, %3
  tail call fastcc void @evdns_cache_free(ptr noundef nonnull %2)
  %14 = load ptr, ptr %8, align 8
  %.not9 = icmp eq ptr %14, null
  br i1 %.not9, label %18, label %15

15:                                               ; preds = %13
  %16 = load ptr, ptr getelementptr inbounds nuw (i8, ptr @evthread_lock_fns_, i64 32), align 8
  %17 = tail call i32 %16(i32 noundef 0, ptr noundef nonnull %14) #21
  br label %18

18:                                               ; preds = %15, %13
  ret void
}